target datalayout = "e-m:e-p270:32:32-p271:32:32-p272:64:64-i64:64-i128:128-f80:128-n8:16:32:64-S128"
target triple = "x86_64-pc-linux-gnu"

@.str = private unnamed_addr constant [13 x i8] c"Empty option\00", align 1
@.str.1 = private unnamed_addr constant [26 x i8] c"Unknown module name: `%s'\00", align 1
@.str.2 = private unnamed_addr constant [33 x i8] c"Undefined option: `%s%s%s%s%s%s'\00", align 1
@.str.3 = private unnamed_addr constant [1 x i8] zeroinitializer, align 1
@.str.4 = private unnamed_addr constant [2 x i8] c"!\00", align 1
@.str.5 = private unnamed_addr constant [2 x i8] c":\00", align 1
@.str.6 = private unnamed_addr constant [2 x i8] c"=\00", align 1

; Function Attrs: nounwind uwtable
define dso_local i32 @_archive_set_option(ptr noundef %0, ptr noundef %1, ptr noundef %2, ptr noundef %3, i32 noundef %4, ptr noundef %5, ptr noundef %6) #0 {
  %8 = alloca i32, align 4
  %9 = alloca ptr, align 8
  %10 = alloca ptr, align 8
  %11 = alloca ptr, align 8
  %12 = alloca ptr, align 8
  %13 = alloca i32, align 4
  %14 = alloca ptr, align 8
  %15 = alloca ptr, align 8
  %16 = alloca ptr, align 8
  %17 = alloca ptr, align 8
  %18 = alloca ptr, align 8
  %19 = alloca i32, align 4
  %20 = alloca i32, align 4
  %21 = alloca i32, align 4
  store ptr %0, ptr %9, align 8, !tbaa !4
  store ptr %1, ptr %10, align 8, !tbaa !9
  store ptr %2, ptr %11, align 8, !tbaa !9
  store ptr %3, ptr %12, align 8, !tbaa !9
  store i32 %4, ptr %13, align 4, !tbaa !11
  store ptr %5, ptr %14, align 8, !tbaa !9
  store ptr %6, ptr %15, align 8, !tbaa !13
  call void @llvm.lifetime.start.p0(i64 8, ptr %16) #5
  call void @llvm.lifetime.start.p0(i64 8, ptr %17) #5
  call void @llvm.lifetime.start.p0(i64 8, ptr %18) #5
  call void @llvm.lifetime.start.p0(i64 4, ptr %19) #5
  br label %22

22:                                               ; preds = %7
  call void @llvm.lifetime.start.p0(i64 4, ptr %20) #5
  %23 = load ptr, ptr %9, align 8, !tbaa !4
  %24 = load i32, ptr %13, align 4, !tbaa !11
  %25 = load ptr, ptr %14, align 8, !tbaa !9
  %26 = call i32 @__archive_check_magic(ptr noundef %23, i32 noundef %24, i32 noundef 1, ptr noundef %25)
  store i32 %26, ptr %20, align 4, !tbaa !11
  %27 = load i32, ptr %20, align 4, !tbaa !11
  %28 = icmp eq i32 %27, -30
  br i1 %28, label %29, label %30

29:                                               ; preds = %22
  store i32 -30, ptr %8, align 4
  store i32 1, ptr %21, align 4
  br label %31

30:                                               ; preds = %22
  store i32 0, ptr %21, align 4
  br label %31

31:                                               ; preds = %30, %29
  call void @llvm.lifetime.end.p0(i64 4, ptr %20) #5
  %32 = load i32, ptr %21, align 4
  switch i32 %32, label %129 [
    i32 0, label %33
  ]

33:                                               ; preds = %31
  br label %34

34:                                               ; preds = %33
  br label %35

35:                                               ; preds = %34
  %36 = load ptr, ptr %10, align 8, !tbaa !9
  %37 = icmp ne ptr %36, null
  br i1 %37, label %38, label %46

38:                                               ; preds = %35
  %39 = load ptr, ptr %10, align 8, !tbaa !9
  %40 = getelementptr inbounds i8, ptr %39, i64 0
  %41 = load i8, ptr %40, align 1, !tbaa !14
  %42 = sext i8 %41 to i32
  %43 = icmp ne i32 %42, 0
  br i1 %43, label %44, label %46

44:                                               ; preds = %38
  %45 = load ptr, ptr %10, align 8, !tbaa !9
  br label %47

46:                                               ; preds = %38, %35
  br label %47

47:                                               ; preds = %46, %44
  %48 = phi ptr [ %45, %44 ], [ null, %46 ]
  store ptr %48, ptr %16, align 8, !tbaa !9
  %49 = load ptr, ptr %11, align 8, !tbaa !9
  %50 = icmp ne ptr %49, null
  br i1 %50, label %51, label %59

51:                                               ; preds = %47
  %52 = load ptr, ptr %11, align 8, !tbaa !9
  %53 = getelementptr inbounds i8, ptr %52, i64 0
  %54 = load i8, ptr %53, align 1, !tbaa !14
  %55 = sext i8 %54 to i32
  %56 = icmp ne i32 %55, 0
  br i1 %56, label %57, label %59

57:                                               ; preds = %51
  %58 = load ptr, ptr %11, align 8, !tbaa !9
  br label %60

59:                                               ; preds = %51, %47
  br label %60

60:                                               ; preds = %59, %57
  %61 = phi ptr [ %58, %57 ], [ null, %59 ]
  store ptr %61, ptr %17, align 8, !tbaa !9
  %62 = load ptr, ptr %12, align 8, !tbaa !9
  %63 = icmp ne ptr %62, null
  br i1 %63, label %64, label %72

64:                                               ; preds = %60
  %65 = load ptr, ptr %12, align 8, !tbaa !9
  %66 = getelementptr inbounds i8, ptr %65, i64 0
  %67 = load i8, ptr %66, align 1, !tbaa !14
  %68 = sext i8 %67 to i32
  %69 = icmp ne i32 %68, 0
  br i1 %69, label %70, label %72

70:                                               ; preds = %64
  %71 = load ptr, ptr %12, align 8, !tbaa !9
  br label %73

72:                                               ; preds = %64, %60
  br label %73

73:                                               ; preds = %72, %70
  %74 = phi ptr [ %71, %70 ], [ null, %72 ]
  store ptr %74, ptr %18, align 8, !tbaa !9
  %75 = load ptr, ptr %17, align 8, !tbaa !9
  %76 = icmp eq ptr %75, null
  br i1 %76, label %77, label %81

77:                                               ; preds = %73
  %78 = load ptr, ptr %18, align 8, !tbaa !9
  %79 = icmp eq ptr %78, null
  br i1 %79, label %80, label %81

80:                                               ; preds = %77
  store i32 0, ptr %8, align 4
  store i32 1, ptr %21, align 4
  br label %129

81:                                               ; preds = %77, %73
  %82 = load ptr, ptr %17, align 8, !tbaa !9
  %83 = icmp eq ptr %82, null
  br i1 %83, label %84, label %86

84:                                               ; preds = %81
  %85 = load ptr, ptr %9, align 8, !tbaa !4
  call void (ptr, i32, ptr, ...) @archive_set_error(ptr noundef %85, i32 noundef -1, ptr noundef @.str)
  store i32 -25, ptr %8, align 4
  store i32 1, ptr %21, align 4
  br label %129

86:                                               ; preds = %81
  %87 = load ptr, ptr %15, align 8, !tbaa !13
  %88 = load ptr, ptr %9, align 8, !tbaa !4
  %89 = load ptr, ptr %16, align 8, !tbaa !9
  %90 = load ptr, ptr %17, align 8, !tbaa !9
  %91 = load ptr, ptr %18, align 8, !tbaa !9
  %92 = call i32 %87(ptr noundef %88, ptr noundef %89, ptr noundef %90, ptr noundef %91)
  store i32 %92, ptr %19, align 4, !tbaa !11
  %93 = load i32, ptr %19, align 4, !tbaa !11
  %94 = icmp eq i32 %93, -21
  br i1 %94, label %95, label %98

95:                                               ; preds = %86
  %96 = load ptr, ptr %9, align 8, !tbaa !4
  %97 = load ptr, ptr %16, align 8, !tbaa !9
  call void (ptr, i32, ptr, ...) @archive_set_error(ptr noundef %96, i32 noundef -1, ptr noundef @.str.1, ptr noundef %97)
  store i32 -25, ptr %8, align 4
  store i32 1, ptr %21, align 4
  br label %129

98:                                               ; preds = %86
  %99 = load i32, ptr %19, align 4, !tbaa !11
  %100 = icmp eq i32 %99, -20
  br i1 %100, label %101, label %127

101:                                              ; preds = %98
  %102 = load ptr, ptr %9, align 8, !tbaa !4
  %103 = load ptr, ptr %18, align 8, !tbaa !9
  %104 = icmp ne ptr %103, null
  %105 = select i1 %104, ptr @.str.3, ptr @.str.4
  %106 = load ptr, ptr %16, align 8, !tbaa !9
  %107 = icmp ne ptr %106, null
  br i1 %107, label %108, label %110

108:                                              ; preds = %101
  %109 = load ptr, ptr %16, align 8, !tbaa !9
  br label %111

110:                                              ; preds = %101
  br label %111

111:                                              ; preds = %110, %108
  %112 = phi ptr [ %109, %108 ], [ @.str.3, %110 ]
  %113 = load ptr, ptr %16, align 8, !tbaa !9
  %114 = icmp ne ptr %113, null
  %115 = select i1 %114, ptr @.str.5, ptr @.str.3
  %116 = load ptr, ptr %17, align 8, !tbaa !9
  %117 = load ptr, ptr %18, align 8, !tbaa !9
  %118 = icmp ne ptr %117, null
  %119 = select i1 %118, ptr @.str.6, ptr @.str.3
  %120 = load ptr, ptr %18, align 8, !tbaa !9
  %121 = icmp ne ptr %120, null
  br i1 %121, label %122, label %124

122:                                              ; preds = %111
  %123 = load ptr, ptr %18, align 8, !tbaa !9
  br label %125

124:                                              ; preds = %111
  br label %125

125:                                              ; preds = %124, %122
  %126 = phi ptr [ %123, %122 ], [ @.str.3, %124 ]
  call void (ptr, i32, ptr, ...) @archive_set_error(ptr noundef %102, i32 noundef -1, ptr noundef @.str.2, ptr noundef %105, ptr noundef %112, ptr noundef %115, ptr noundef %116, ptr noundef %119, ptr noundef %126)
  store i32 -25, ptr %8, align 4
  store i32 1, ptr %21, align 4
  br label %129

127:                                              ; preds = %98
  %128 = load i32, ptr %19, align 4, !tbaa !11
  store i32 %128, ptr %8, align 4
  store i32 1, ptr %21, align 4
  br label %129

129:                                              ; preds = %127, %125, %95, %84, %80, %31
  call void @llvm.lifetime.end.p0(i64 4, ptr %19) #5
  call void @llvm.lifetime.end.p0(i64 8, ptr %18) #5
  call void @llvm.lifetime.end.p0(i64 8, ptr %17) #5
  call void @llvm.lifetime.end.p0(i64 8, ptr %16) #5
  %130 = load i32, ptr %8, align 4
  ret i32 %130
}