; Function Attrs: nounwind uwtable
define dso_local range(i32 -19, -21) i32 @_archive_set_option(ptr noundef %0, ptr noundef %1, ptr noundef %2, ptr noundef %3, i32 noundef %4, ptr noundef %5, ptr noundef readonly captures(none) %6) local_unnamed_addr #0 {
  %8 = tail call i32 @__archive_check_magic(ptr noundef %0, i32 noundef %4, i32 noundef 1, ptr noundef %5) #6
  %.not = icmp eq i32 %8, -30
  br i1 %.not, label %35, label %9

9:                                                ; preds = %7
  %.not46 = icmp eq ptr %1, null
  br i1 %.not46, label %12, label %10

10:                                               ; preds = %9
  %11 = load i8, ptr %1, align 1, !tbaa !4
  %.not47 = icmp eq i8 %11, 0
  %spec.select = select i1 %.not47, ptr null, ptr %1
  br label %12

12:                                               ; preds = %10, %9
  %13 = phi ptr [ null, %9 ], [ %spec.select, %10 ]
  %.not48 = icmp eq ptr %2, null
  br i1 %.not48, label %16, label %14

14:                                               ; preds = %12
  %15 = load i8, ptr %2, align 1, !tbaa !4
  %.not49 = icmp eq i8 %15, 0
  %spec.select2 = select i1 %.not49, ptr null, ptr %2
  br label %16

16:                                               ; preds = %14, %12
  %17 = phi ptr [ null, %12 ], [ %spec.select2, %14 ]
  %.not50 = icmp eq ptr %3, null
  br i1 %.not50, label %20, label %18

18:                                               ; preds = %16
  %19 = load i8, ptr %3, align 1, !tbaa !4
  %.not51 = icmp eq i8 %19, 0
  %spec.select3 = select i1 %.not51, ptr null, ptr %3
  br label %20

20:                                               ; preds = %18, %16
  %21 = phi ptr [ null, %16 ], [ %spec.select3, %18 ]
  %22 = icmp eq ptr %17, null
  %23 = icmp eq ptr %21, null
  %or.cond = select i1 %22, i1 %23, i1 false
  br i1 %or.cond, label %35, label %24

24:                                               ; preds = %20
  br i1 %22, label %25, label %26

25:                                               ; preds = %24
  tail call void (ptr, i32, ptr, ...) @archive_set_error(ptr noundef %0, i32 noundef -1, ptr noundef nonnull @.str) #6
  br label %35

26:                                               ; preds = %24
  %27 = tail call i32 %6(ptr noundef %0, ptr noundef %13, ptr noundef nonnull %17, ptr noundef %21) #6
  switch i32 %27, label %35 [
    i32 -21, label %28
    i32 -20, label %29
  ]

28:                                               ; preds = %26
  tail call void (ptr, i32, ptr, ...) @archive_set_error(ptr noundef %0, i32 noundef -1, ptr noundef nonnull @.str.1, ptr noundef %13) #6
  br label %35

29:                                               ; preds = %26
  %30 = select i1 %23, ptr @.str.4, ptr @.str.3
  %.not53 = icmp eq ptr %13, null
  %31 = select i1 %.not53, ptr @.str.3, ptr %13
  %32 = select i1 %.not53, ptr @.str.3, ptr @.str.5
  %33 = select i1 %23, ptr @.str.3, ptr @.str.6
  %34 = select i1 %23, ptr @.str.3, ptr %21
  tail call void (ptr, i32, ptr, ...) @archive_set_error(ptr noundef %0, i32 noundef -1, ptr noundef nonnull @.str.2, ptr noundef nonnull %30, ptr noundef nonnull %31, ptr noundef nonnull %32, ptr noundef nonnull %17, ptr noundef nonnull %33, ptr noundef nonnull %34) #6
  br label %35

35:                                               ; preds = %26, %20, %7, %29, %28, %25
  %.1 = phi i32 [ -25, %25 ], [ -25, %28 ], [ -25, %29 ], [ -30, %7 ], [ 0, %20 ], [ %27, %26 ]
  ret i32 %.1
}